; ModuleID = '9/1162.c'
source_filename = "9/1162.c"
target datalayout = "e-m:e-p270:32:32-p271:32:32-p272:64:64-i64:64-f80:128-n8:16:32:64-S128"
target triple = "x86_64-pc-linux-gnu"

@.str = private unnamed_addr constant [3 x i8] c"%d\00", align 1
@.str.1 = private unnamed_addr constant [5 x i8] c"%s%d\00", align 1
@.str.2 = private unnamed_addr constant [4 x i8] c"%s\0A\00", align 1

; Function Attrs: noinline nounwind uwtable
define dso_local i32 @main() #0 {
  %1 = alloca i32, align 4
  %2 = alloca i32, align 4
  %3 = alloca i32, align 4
  %4 = alloca i32, align 4
  %5 = alloca i32, align 4
  %6 = alloca i32, align 4
  %7 = alloca i32, align 4
  %8 = alloca i32, align 4
  %9 = alloca i32, align 4
  %10 = alloca i32, align 4
  %11 = alloca i32, align 4
  %12 = alloca i32, align 4
  %13 = alloca [150 x [100 x i8]], align 16
  %14 = alloca [100 x [100 x i8]], align 16
  %15 = alloca [100 x i8], align 16
  %16 = alloca [100 x i8], align 16
  store i32 0, i32* %1, align 4
  store i32 0, i32* %6, align 4
  store i32 0, i32* %10, align 4
  store i32 2, i32* %11, align 4
  %17 = bitcast [150 x [100 x i8]]* %13 to i8*
  call void @llvm.memset.p0i8.i64(i8* align 16 %17, i8 0, i64 15000, i1 false)
  %18 = bitcast [100 x [100 x i8]]* %14 to i8*
  call void @llvm.memset.p0i8.i64(i8* align 16 %18, i8 0, i64 10000, i1 false)
  %19 = bitcast [100 x i8]* %15 to i8*
  call void @llvm.memset.p0i8.i64(i8* align 16 %19, i8 0, i64 100, i1 false)
  %20 = bitcast [100 x i8]* %16 to i8*
  call void @llvm.memset.p0i8.i64(i8* align 16 %20, i8 0, i64 100, i1 false)
  %21 = call i32 (i8*, ...) @__isoc99_scanf(i8* getelementptr inbounds ([3 x i8], [3 x i8]* @.str, i64 0, i64 0), i32* %2)
  store i32 0, i32* %3, align 4
  br label %22

22:                                               ; preds = %69, %0
  %23 = load i32, i32* %3, align 4
  %24 = load i32, i32* %2, align 4
  %25 = icmp slt i32 %23, %24
  br i1 %25, label %26, label %72

26:                                               ; preds = %22
  %27 = call i32 (i8*, ...) @__isoc99_scanf(i8* getelementptr inbounds ([5 x i8], [5 x i8]* @.str.1, i64 0, i64 0), [100 x i8]* %15, i32* %12)
  %28 = load i32, i32* %12, align 4
  %29 = icmp sge i32 %28, 60
  br i1 %29, label %30, label %61

30:                                               ; preds = %26
  %31 = load i32, i32* %12, align 4
  %32 = sext i32 %31 to i64
  %33 = getelementptr inbounds [150 x [100 x i8]], [150 x [100 x i8]]* %13, i64 0, i64 %32
  %34 = getelementptr inbounds [100 x i8], [100 x i8]* %33, i64 0, i64 0
  %35 = load i8, i8* %34, align 4
  %36 = sext i8 %35 to i32
  %37 = icmp eq i32 %36, 0
  br i1 %37, label %38, label %45

38:                                               ; preds = %30
  %39 = load i32, i32* %12, align 4
  %40 = sext i32 %39 to i64
  %41 = getelementptr inbounds [150 x [100 x i8]], [150 x [100 x i8]]* %13, i64 0, i64 %40
  %42 = getelementptr inbounds [100 x i8], [100 x i8]* %41, i64 0, i64 0
  %43 = getelementptr inbounds [100 x i8], [100 x i8]* %15, i64 0, i64 0
  %44 = call i8* @strcpy(i8* %42, i8* %43) #4
  br label %60

45:                                               ; preds = %30
  %46 = getelementptr inbounds [100 x i8], [100 x i8]* %16, i64 0, i64 0
  store i8 13, i8* %46, align 16
  %47 = getelementptr inbounds [100 x i8], [100 x i8]* %16, i64 0, i64 1
  store i8 0, i8* %47, align 1
  %48 = load i32, i32* %12, align 4
  %49 = sext i32 %48 to i64
  %50 = getelementptr inbounds [150 x [100 x i8]], [150 x [100 x i8]]* %13, i64 0, i64 %49
  %51 = getelementptr inbounds [100 x i8], [100 x i8]* %50, i64 0, i64 0
  %52 = getelementptr inbounds [100 x i8], [100 x i8]* %16, i64 0, i64 0
  %53 = call i8* @strcat(i8* %51, i8* %52) #4
  %54 = load i32, i32* %12, align 4
  %55 = sext i32 %54 to i64
  %56 = getelementptr inbounds [150 x [100 x i8]], [150 x [100 x i8]]* %13, i64 0, i64 %55
  %57 = getelementptr inbounds [100 x i8], [100 x i8]* %56, i64 0, i64 0
  %58 = getelementptr inbounds [100 x i8], [100 x i8]* %15, i64 0, i64 0
  %59 = call i8* @strcat(i8* %57, i8* %58) #4
  br label %60

60:                                               ; preds = %45, %38
  br label %68

61:                                               ; preds = %26
  %62 = load i32, i32* %3, align 4
  %63 = sext i32 %62 to i64
  %64 = getelementptr inbounds [100 x [100 x i8]], [100 x [100 x i8]]* %14, i64 0, i64 %63
  %65 = getelementptr inbounds [100 x i8], [100 x i8]* %64, i64 0, i64 0
  %66 = getelementptr inbounds [100 x i8], [100 x i8]* %15, i64 0, i64 0
  %67 = call i8* @strcpy(i8* %65, i8* %66) #4
  br label %68

68:                                               ; preds = %61, %60
  br label %69

69:                                               ; preds = %68
  %70 = load i32, i32* %3, align 4
  %71 = add nsw i32 %70, 1
  store i32 %71, i32* %3, align 4
  br label %22

72:                                               ; preds = %22
  store i32 149, i32* %3, align 4
  br label %73

73:                                               ; preds = %91, %72
  %74 = load i32, i32* %3, align 4
  %75 = icmp sge i32 %74, 0
  br i1 %75, label %76, label %94

76:                                               ; preds = %73
  %77 = load i32, i32* %3, align 4
  %78 = sext i32 %77 to i64
  %79 = getelementptr inbounds [150 x [100 x i8]], [150 x [100 x i8]]* %13, i64 0, i64 %78
  %80 = getelementptr inbounds [100 x i8], [100 x i8]* %79, i64 0, i64 0
  %81 = load i8, i8* %80, align 4
  %82 = sext i8 %81 to i32
  %83 = icmp ne i32 %82, 0
  br i1 %83, label %84, label %90

84:                                               ; preds = %76
  %85 = load i32, i32* %3, align 4
  %86 = sext i32 %85 to i64
  %87 = getelementptr inbounds [150 x [100 x i8]], [150 x [100 x i8]]* %13, i64 0, i64 %86
  %88 = getelementptr inbounds [100 x i8], [100 x i8]* %87, i64 0, i64 0
  %89 = call i32 (i8*, ...) @printf(i8* getelementptr inbounds ([4 x i8], [4 x i8]* @.str.2, i64 0, i64 0), i8* %88)
  br label %90

90:                                               ; preds = %84, %76
  br label %91

91:                                               ; preds = %90
  %92 = load i32, i32* %3, align 4
  %93 = add nsw i32 %92, -1
  store i32 %93, i32* %3, align 4
  br label %73

94:                                               ; preds = %73
  store i32 0, i32* %3, align 4
  br label %95

95:                                               ; preds = %112, %94
  %96 = load i32, i32* %3, align 4
  %97 = load i32, i32* %2, align 4
  %98 = icmp slt i32 %96, %97
  br i1 %98, label %99, label %115

99:                                               ; preds = %95
  %100 = load i32, i32* %3, align 4
  %101 = sext i32 %100 to i64
  %102 = getelementptr inbounds [100 x [100 x i8]], [100 x [100 x i8]]* %14, i64 0, i64 %101
  %103 = getelementptr inbounds [100 x i8], [100 x i8]* %102, i64 0, i64 0
  %104 = icmp ne i8* %103, null
  br i1 %104, label %105, label %111

105:                                              ; preds = %99
  %106 = load i32, i32* %3, align 4
  %107 = sext i32 %106 to i64
  %108 = getelementptr inbounds [100 x [100 x i8]], [100 x [100 x i8]]* %14, i64 0, i64 %107
  %109 = getelementptr inbounds [100 x i8], [100 x i8]* %108, i64 0, i64 0
  %110 = call i32 (i8*, ...) @printf(i8* getelementptr inbounds ([4 x i8], [4 x i8]* @.str.2, i64 0, i64 0), i8* %109)
  br label %111

111:                                              ; preds = %105, %99
  br label %112

112:                                              ; preds = %111
  %113 = load i32, i32* %3, align 4
  %114 = add nsw i32 %113, 1
  store i32 %114, i32* %3, align 4
  br label %95

115:                                              ; preds = %95
  ret i32 0
}

; Function Attrs: argmemonly nounwind willreturn
declare void @llvm.memset.p0i8.i64(i8* nocapture writeonly, i8, i64, i1 immarg) #1

declare dso_local i32 @__isoc99_scanf(i8*, ...) #2

; Function Attrs: nounwind
declare dso_local i8* @strcpy(i8*, i8*) #3

; Function Attrs: nounwind
declare dso_local i8* @strcat(i8*, i8*) #3

declare dso_local i32 @printf(i8*, ...) #2


!llvm.module.flags = !{!0}
!llvm.ident = !{!1}

!0 = !{i32 1, !"wchar_size", i32 4}
!1 = !{!"clang version 10.0.0-4ubuntu1 "}
