; ModuleID = 'source-C-CXX/8/1162.c'
source_filename = "source-C-CXX/8/1162.c"
target datalayout = "e-m:e-p270:32:32-p271:32:32-p272:64:64-i64:64-f80:128-n8:16:32:64-S128"
target triple = "x86_64-pc-linux-gnu"

@.str = private unnamed_addr constant [3 x i8] c"%d\00", align 1
@.str.1 = private unnamed_addr constant [5 x i8] c"%s%d\00", align 1

; Function Attrs: nofree nounwind sspstrong uwtable
define dso_local i32 @main() local_unnamed_addr #0 {
  %1 = alloca i32, align 4
  %2 = alloca i32, align 4
  %3 = alloca [150 x [100 x i8]], align 16
  %4 = alloca [100 x [100 x i8]], align 16
  %5 = alloca [100 x i8], align 16
  %6 = alloca [100 x i8], align 16
  %7 = bitcast i32* %1 to i8*
  call void @llvm.lifetime.start.p0i8(i64 4, i8* nonnull %7) #6
  %8 = bitcast i32* %2 to i8*
  call void @llvm.lifetime.start.p0i8(i64 4, i8* nonnull %8) #6
  %9 = getelementptr inbounds [150 x [100 x i8]], [150 x [100 x i8]]* %3, i64 0, i64 0, i64 0
  call void @llvm.lifetime.start.p0i8(i64 15000, i8* nonnull %9) #6
  call void @llvm.memset.p0i8.i64(i8* noundef nonnull align 16 dereferenceable(15000) %9, i8 0, i64 15000, i1 false)
  %10 = getelementptr inbounds [100 x [100 x i8]], [100 x [100 x i8]]* %4, i64 0, i64 0, i64 0
  call void @llvm.lifetime.start.p0i8(i64 10000, i8* nonnull %10) #6
  call void @llvm.memset.p0i8.i64(i8* noundef nonnull align 16 dereferenceable(10000) %10, i8 0, i64 10000, i1 false)
  %11 = getelementptr inbounds [100 x i8], [100 x i8]* %5, i64 0, i64 0
  call void @llvm.lifetime.start.p0i8(i64 100, i8* nonnull %11) #6
  call void @llvm.memset.p0i8.i64(i8* noundef nonnull align 16 dereferenceable(100) %11, i8 0, i64 100, i1 false)
  %12 = getelementptr inbounds [100 x i8], [100 x i8]* %6, i64 0, i64 0
  call void @llvm.lifetime.start.p0i8(i64 100, i8* nonnull %12) #6
  call void @llvm.memset.p0i8.i64(i8* noundef nonnull align 16 dereferenceable(100) %12, i8 0, i64 100, i1 false)
  %13 = call i32 (i8*, ...) @__isoc99_scanf(i8* getelementptr inbounds ([3 x i8], [3 x i8]* @.str, i64 0, i64 0), i32* nonnull %1)
  %14 = getelementptr inbounds [100 x i8], [100 x i8]* %6, i64 0, i64 1
  %15 = load i32, i32* %1, align 4, !tbaa !5
  %16 = icmp sgt i32 %15, 0
  br i1 %16, label %18, label %17

17:                                               ; preds = %36, %0
  br label %44

18:                                               ; preds = %0, %36
  %19 = phi i64 [ %37, %36 ], [ 0, %0 ]
  %20 = call i32 (i8*, ...) @__isoc99_scanf(i8* getelementptr inbounds ([5 x i8], [5 x i8]* @.str.1, i64 0, i64 0), [100 x i8]* nonnull %5, i32* nonnull %2)
  %21 = load i32, i32* %2, align 4, !tbaa !5
  %22 = icmp sgt i32 %21, 59
  br i1 %22, label %23, label %33

23:                                               ; preds = %18
  %24 = zext i32 %21 to i64
  %25 = getelementptr inbounds [150 x [100 x i8]], [150 x [100 x i8]]* %3, i64 0, i64 %24, i64 0
  %26 = load i8, i8* %25, align 4, !tbaa !9
  %27 = icmp eq i8 %26, 0
  br i1 %27, label %28, label %30

28:                                               ; preds = %23
  %29 = call i8* @strcpy(i8* noundef nonnull %25, i8* noundef nonnull %11) #6
  br label %36

30:                                               ; preds = %23
  store i8 13, i8* %12, align 16, !tbaa !9
  store i8 0, i8* %14, align 1, !tbaa !9
  %31 = call i8* @strcat(i8* noundef nonnull %25, i8* noundef nonnull %12) #6
  %32 = call i8* @strcat(i8* noundef nonnull %25, i8* noundef nonnull %11) #6
  br label %36

33:                                               ; preds = %18
  %34 = getelementptr inbounds [100 x [100 x i8]], [100 x [100 x i8]]* %4, i64 0, i64 %19, i64 0
  %35 = call i8* @strcpy(i8* noundef nonnull %34, i8* noundef nonnull %11) #6
  br label %36

36:                                               ; preds = %33, %30, %28
  %37 = add nuw nsw i64 %19, 1
  %38 = load i32, i32* %1, align 4, !tbaa !5
  %39 = sext i32 %38 to i64
  %40 = icmp slt i64 %37, %39
  br i1 %40, label %18, label %17, !llvm.loop !10

41:                                               ; preds = %51
  %42 = load i32, i32* %1, align 4, !tbaa !5
  %43 = icmp sgt i32 %42, 0
  br i1 %43, label %54, label %62

44:                                               ; preds = %17, %51
  %45 = phi i64 [ %52, %51 ], [ 149, %17 ]
  %46 = getelementptr inbounds [150 x [100 x i8]], [150 x [100 x i8]]* %3, i64 0, i64 %45, i64 0
  %47 = load i8, i8* %46, align 4, !tbaa !9
  %48 = icmp eq i8 %47, 0
  br i1 %48, label %51, label %49

49:                                               ; preds = %44
  %50 = call i32 @puts(i8* nonnull %46)
  br label %51

51:                                               ; preds = %44, %49
  %52 = add nsw i64 %45, -1
  %53 = icmp eq i64 %45, 0
  br i1 %53, label %41, label %44, !llvm.loop !12

54:                                               ; preds = %41, %54
  %55 = phi i64 [ %58, %54 ], [ 0, %41 ]
  %56 = getelementptr inbounds [100 x [100 x i8]], [100 x [100 x i8]]* %4, i64 0, i64 %55, i64 0
  %57 = call i32 @puts(i8* nonnull %56)
  %58 = add nuw nsw i64 %55, 1
  %59 = load i32, i32* %1, align 4, !tbaa !5
  %60 = sext i32 %59 to i64
  %61 = icmp slt i64 %58, %60
  br i1 %61, label %54, label %62, !llvm.loop !13

62:                                               ; preds = %54, %41
  call void @llvm.lifetime.end.p0i8(i64 100, i8* nonnull %12) #6
  call void @llvm.lifetime.end.p0i8(i64 100, i8* nonnull %11) #6
  call void @llvm.lifetime.end.p0i8(i64 10000, i8* nonnull %10) #6
  call void @llvm.lifetime.end.p0i8(i64 15000, i8* nonnull %9) #6
  call void @llvm.lifetime.end.p0i8(i64 4, i8* nonnull %8) #6
  call void @llvm.lifetime.end.p0i8(i64 4, i8* nonnull %7) #6
  ret i32 0
}

; Function Attrs: argmemonly mustprogress nofree nosync nounwind willreturn
declare void @llvm.lifetime.start.p0i8(i64 immarg, i8* nocapture) #1

; Function Attrs: argmemonly mustprogress nofree nounwind willreturn writeonly
declare void @llvm.memset.p0i8.i64(i8* nocapture writeonly, i8, i64, i1 immarg) #2

; Function Attrs: nofree nounwind
declare noundef i32 @__isoc99_scanf(i8* nocapture noundef readonly, ...) local_unnamed_addr #3

; Function Attrs: argmemonly mustprogress nofree nounwind willreturn
declare i8* @strcpy(i8* noalias returned writeonly, i8* noalias nocapture readonly) local_unnamed_addr #4

; Function Attrs: argmemonly mustprogress nofree nounwind willreturn
declare i8* @strcat(i8* noalias returned, i8* noalias nocapture readonly) local_unnamed_addr #4

; Function Attrs: argmemonly mustprogress nofree nosync nounwind willreturn
declare void @llvm.lifetime.end.p0i8(i64 immarg, i8* nocapture) #1

; Function Attrs: nofree nounwind
declare noundef i32 @puts(i8* nocapture noundef readonly) local_unnamed_addr #5


!llvm.module.flags = !{!0, !1, !2, !3}
!llvm.ident = !{!4}

!0 = !{i32 1, !"wchar_size", i32 4}
!1 = !{i32 7, !"PIC Level", i32 2}
!2 = !{i32 7, !"PIE Level", i32 2}
!3 = !{i32 7, !"uwtable", i32 1}
!4 = !{!"clang version 13.0.0"}
!5 = !{!6, !6, i64 0}
!6 = !{!"int", !7, i64 0}
!7 = !{!"omnipotent char", !8, i64 0}
!8 = !{!"Simple C/C++ TBAA"}
!9 = !{!7, !7, i64 0}
!10 = distinct !{!10, !11}
!11 = !{!"llvm.loop.mustprogress"}
!12 = distinct !{!12, !11}
!13 = distinct !{!13, !11}
